; Function Attrs: alwaysinline norecurse nounwind ssp uwtable
define internal void @"_ZN6open3d4core15ParallelForCPU_IZNS0_6kernelL19LaunchUnaryEWKernelIllFvPKvPvEZZZNS2_10UnaryEWCPUERKNS0_6TensorERS8_NS2_13UnaryEWOpCodeEENK3$_3clEvENKUlvE4_clEvEUlllE_EEvRKNS0_7IndexerERKT1_RKT2_EUllE_EEvRKNS0_6DeviceElRKT_.omp_outlined"(ptr noalias noundef readonly captures(none) %0, ptr noalias readnone captures(none) %1, ptr noundef nonnull readonly align 8 captures(none) dereferenceable(8) %2, ptr noundef nonnull readonly align 8 captures(none) dereferenceable(16) %3) #24 personality ptr @__gxx_personality_v0 {
  %5 = alloca i64, align 8
  %6 = alloca i64, align 8
  %7 = alloca i64, align 8
  %8 = alloca i32, align 4
  %9 = load i64, ptr %2, align 8, !tbaa !9
  %10 = icmp sgt i64 %9, 0
  br i1 %10, label %11, label %74

11:                                               ; preds = %4
  %12 = add nsw i64 %9, -1
  call void @llvm.lifetime.start.p0(i64 8, ptr nonnull %5) #25
  store i64 0, ptr %5, align 8, !tbaa !9
  call void @llvm.lifetime.start.p0(i64 8, ptr nonnull %6) #25
  store i64 %12, ptr %6, align 8, !tbaa !9
  call void @llvm.lifetime.start.p0(i64 8, ptr nonnull %7) #25
  store i64 1, ptr %7, align 8, !tbaa !9
  call void @llvm.lifetime.start.p0(i64 4, ptr nonnull %8) #25
  store i32 0, ptr %8, align 4, !tbaa !39
  %13 = load i32, ptr %0, align 4, !tbaa !39
  call void @__kmpc_for_static_init_8(ptr nonnull @1, i32 %13, i32 34, ptr nonnull %8, ptr nonnull %5, ptr nonnull %6, ptr nonnull %7, i64 1, i64 1)
  %14 = load i64, ptr %6, align 8, !tbaa !9
  %15 = call i64 @llvm.smin.i64(i64 %14, i64 %12)
  store i64 %15, ptr %6, align 8, !tbaa !9
  %16 = load i64, ptr %5, align 8, !tbaa !9
  %.not15 = icmp sgt i64 %16, %15
  br i1 %.not15, label %._crit_edge, label %.lr.ph

.lr.ph:                                           ; preds = %11
  %17 = getelementptr inbounds nuw i8, ptr %3, i64 8
  br label %18

18:                                               ; preds = %.lr.ph, %"_ZZN6open3d4core6kernelL19LaunchUnaryEWKernelIllFvPKvPvEZZZNS1_10UnaryEWCPUERKNS0_6TensorERS7_NS1_13UnaryEWOpCodeEENK3$_3clEvENKUlvE4_clEvEUlllE_EEvRKNS0_7IndexerERKT1_RKT2_ENKUllE_clEl.exit"
  %.016 = phi i64 [ %16, %.lr.ph ], [ %72, %"_ZZN6open3d4core6kernelL19LaunchUnaryEWKernelIllFvPKvPvEZZZNS1_10UnaryEWCPUERKNS0_6TensorERS7_NS1_13UnaryEWOpCodeEENK3$_3clEvENKUlvE4_clEvEUlllE_EEvRKNS0_7IndexerERKT1_RKT2_ENKUllE_clEl.exit" ]
  %.val = load ptr, ptr %3, align 8, !tbaa !1381
  %.val13 = load ptr, ptr %17, align 8, !tbaa !1383
  %19 = load i64, ptr %.val, align 8
  %.not.i.i = icmp sgt i64 %19, 0
  br i1 %.not.i.i, label %20, label %_ZNK6open3d4core7Indexer11GetInputPtrIlEEPT_ll.exit.i

20:                                               ; preds = %18
  %21 = getelementptr inbounds nuw i8, ptr %.val, i64 16
  %22 = icmp slt i64 %.016, 0
  br i1 %22, label %_ZNK6open3d4core7Indexer12GetOutputPtrIlEEPT_l.exit.i, label %23

23:                                               ; preds = %20
  %24 = getelementptr inbounds nuw i8, ptr %.val, i64 744
  %25 = load i8, ptr %24, align 1, !tbaa !41, !range !249, !noundef !250
  %26 = trunc nuw i8 %25 to i1
  br i1 %26, label %32, label %.preheader.i.i.i

.preheader.i.i.i:                                 ; preds = %23
  %27 = getelementptr inbounds nuw i8, ptr %.val, i64 832
  %28 = load i64, ptr %27, align 8, !tbaa !743
  %29 = icmp sgt i64 %28, 0
  br i1 %29, label %.lr.ph.i.i.i, label %._crit_edge.i.i.i

.lr.ph.i.i.i:                                     ; preds = %.preheader.i.i.i
  %30 = getelementptr inbounds nuw i8, ptr %.val, i64 792
  %31 = getelementptr inbounds nuw i8, ptr %.val, i64 80
  br label %37

32:                                               ; preds = %23
  %33 = load ptr, ptr %21, align 8, !tbaa !745
  %34 = getelementptr inbounds nuw i64, ptr %33, i64 %.016
  br label %_ZNK6open3d4core7Indexer11GetInputPtrIlEEPT_ll.exit.thread.i

._crit_edge.i.i.i:                                ; preds = %37, %.preheader.i.i.i
  %.016.lcssa.i.i.i = phi i64 [ 0, %.preheader.i.i.i ], [ %44, %37 ]
  %35 = load ptr, ptr %21, align 8, !tbaa !745
  %36 = getelementptr inbounds i8, ptr %35, i64 %.016.lcssa.i.i.i
  br label %_ZNK6open3d4core7Indexer11GetInputPtrIlEEPT_ll.exit.thread.i

37:                                               ; preds = %37, %.lr.ph.i.i.i
  %.022.i.i.i = phi i64 [ 0, %.lr.ph.i.i.i ], [ %46, %37 ]
  %.01621.i.i.i = phi i64 [ 0, %.lr.ph.i.i.i ], [ %44, %37 ]
  %.01720.i.i.i = phi i64 [ %.016, %.lr.ph.i.i.i ], [ %45, %37 ]
  %38 = getelementptr inbounds nuw [5 x i64], ptr %30, i64 0, i64 %.022.i.i.i
  %39 = load i64, ptr %38, align 8, !tbaa !9
  %40 = sdiv i64 %.01720.i.i.i, %39
  %41 = getelementptr inbounds nuw [5 x i64], ptr %31, i64 0, i64 %.022.i.i.i
  %42 = load i64, ptr %41, align 8, !tbaa !9
  %43 = mul nsw i64 %42, %40
  %44 = add nsw i64 %43, %.01621.i.i.i
  %45 = srem i64 %.01720.i.i.i, %39
  %46 = add nuw nsw i64 %.022.i.i.i, 1
  %exitcond.not.i.i.i = icmp eq i64 %46, %28
  br i1 %exitcond.not.i.i.i, label %._crit_edge.i.i.i, label %37, !llvm.loop !782

_ZNK6open3d4core7Indexer11GetInputPtrIlEEPT_ll.exit.i: ; preds = %18
  %47 = icmp slt i64 %.016, 0
  br i1 %47, label %_ZNK6open3d4core7Indexer12GetOutputPtrIlEEPT_l.exit.i, label %_ZNK6open3d4core7Indexer11GetInputPtrIlEEPT_ll.exit.thread.i

_ZNK6open3d4core7Indexer11GetInputPtrIlEEPT_ll.exit.thread.i: ; preds = %_ZNK6open3d4core7Indexer11GetInputPtrIlEEPT_ll.exit.i, %._crit_edge.i.i.i, %32
  %.0.i2.i = phi ptr [ null, %_ZNK6open3d4core7Indexer11GetInputPtrIlEEPT_ll.exit.i ], [ %36, %._crit_edge.i.i.i ], [ %34, %32 ]
  %48 = getelementptr inbounds nuw i8, ptr %.val, i64 536
  %49 = getelementptr inbounds nuw i8, ptr %.val, i64 749
  %50 = load i8, ptr %49, align 1, !tbaa !41, !range !249, !noundef !250
  %51 = trunc nuw i8 %50 to i1
  br i1 %51, label %57, label %.preheader.i.i2.i

.preheader.i.i2.i:                                ; preds = %_ZNK6open3d4core7Indexer11GetInputPtrIlEEPT_ll.exit.thread.i
  %52 = getelementptr inbounds nuw i8, ptr %.val, i64 832
  %53 = load i64, ptr %52, align 8, !tbaa !743
  %54 = icmp sgt i64 %53, 0
  br i1 %54, label %.lr.ph.i.i5.i, label %._crit_edge.i.i3.i

.lr.ph.i.i5.i:                                    ; preds = %.preheader.i.i2.i
  %55 = getelementptr inbounds nuw i8, ptr %.val, i64 792
  %56 = getelementptr inbounds nuw i8, ptr %.val, i64 600
  br label %62

57:                                               ; preds = %_ZNK6open3d4core7Indexer11GetInputPtrIlEEPT_ll.exit.thread.i
  %58 = load ptr, ptr %48, align 8, !tbaa !745
  %59 = getelementptr inbounds nuw i64, ptr %58, i64 %.016
  br label %_ZNK6open3d4core7Indexer12GetOutputPtrIlEEPT_l.exit.i

._crit_edge.i.i3.i:                               ; preds = %62, %.preheader.i.i2.i
  %.016.lcssa.i.i4.i = phi i64 [ 0, %.preheader.i.i2.i ], [ %69, %62 ]
  %60 = load ptr, ptr %48, align 8, !tbaa !745
  %61 = getelementptr inbounds i8, ptr %60, i64 %.016.lcssa.i.i4.i
  br label %_ZNK6open3d4core7Indexer12GetOutputPtrIlEEPT_l.exit.i

62:                                               ; preds = %62, %.lr.ph.i.i5.i
  %.022.i.i6.i = phi i64 [ 0, %.lr.ph.i.i5.i ], [ %71, %62 ]
  %.01621.i.i7.i = phi i64 [ 0, %.lr.ph.i.i5.i ], [ %69, %62 ]
  %.01720.i.i8.i = phi i64 [ %.016, %.lr.ph.i.i5.i ], [ %70, %62 ]
  %63 = getelementptr inbounds nuw [5 x i64], ptr %55, i64 0, i64 %.022.i.i6.i
  %64 = load i64, ptr %63, align 8, !tbaa !9
  %65 = sdiv i64 %.01720.i.i8.i, %64
  %66 = getelementptr inbounds nuw [5 x i64], ptr %56, i64 0, i64 %.022.i.i6.i
  %67 = load i64, ptr %66, align 8, !tbaa !9
  %68 = mul nsw i64 %67, %65
  %69 = add nsw i64 %68, %.01621.i.i7.i
  %70 = srem i64 %.01720.i.i8.i, %64
  %71 = add nuw nsw i64 %.022.i.i6.i, 1
  %exitcond.not.i.i9.i = icmp eq i64 %71, %53
  br i1 %exitcond.not.i.i9.i, label %._crit_edge.i.i3.i, label %62, !llvm.loop !782

_ZNK6open3d4core7Indexer12GetOutputPtrIlEEPT_l.exit.i: ; preds = %._crit_edge.i.i3.i, %57, %_ZNK6open3d4core7Indexer11GetInputPtrIlEEPT_ll.exit.i, %20
  %.0.i3.i = phi ptr [ %.0.i2.i, %57 ], [ %.0.i2.i, %._crit_edge.i.i3.i ], [ null, %_ZNK6open3d4core7Indexer11GetInputPtrIlEEPT_ll.exit.i ], [ null, %20 ]
  %.018.i.i.i = phi ptr [ %59, %57 ], [ %61, %._crit_edge.i.i3.i ], [ null, %_ZNK6open3d4core7Indexer11GetInputPtrIlEEPT_ll.exit.i ], [ null, %20 ]
  invoke void %.val13(ptr noundef %.0.i3.i, ptr noundef %.018.i.i.i)
          to label %"_ZZN6open3d4core6kernelL19LaunchUnaryEWKernelIllFvPKvPvEZZZNS1_10UnaryEWCPUERKNS0_6TensorERS7_NS1_13UnaryEWOpCodeEENK3$_3clEvENKUlvE4_clEvEUlllE_EEvRKNS0_7IndexerERKT1_RKT2_ENKUllE_clEl.exit" unwind label %75

"_ZZN6open3d4core6kernelL19LaunchUnaryEWKernelIllFvPKvPvEZZZNS1_10UnaryEWCPUERKNS0_6TensorERS7_NS1_13UnaryEWOpCodeEENK3$_3clEvENKUlvE4_clEvEUlllE_EEvRKNS0_7IndexerERKT1_RKT2_ENKUllE_clEl.exit": ; preds = %_ZNK6open3d4core7Indexer12GetOutputPtrIlEEPT_l.exit.i
  %72 = add nsw i64 %.016, 1
  %73 = load i64, ptr %6, align 8, !tbaa !9
  %.not.not = icmp slt i64 %.016, %73
  br i1 %.not.not, label %18, label %._crit_edge

._crit_edge:                                      ; preds = %"_ZZN6open3d4core6kernelL19LaunchUnaryEWKernelIllFvPKvPvEZZZNS1_10UnaryEWCPUERKNS0_6TensorERS7_NS1_13UnaryEWOpCodeEENK3$_3clEvENKUlvE4_clEvEUlllE_EEvRKNS0_7IndexerERKT1_RKT2_ENKUllE_clEl.exit", %11
  call void @__kmpc_for_static_fini(ptr nonnull @1, i32 %13)
  call void @llvm.lifetime.end.p0(i64 4, ptr nonnull %8) #25
  call void @llvm.lifetime.end.p0(i64 8, ptr nonnull %7) #25
  call void @llvm.lifetime.end.p0(i64 8, ptr nonnull %6) #25
  call void @llvm.lifetime.end.p0(i64 8, ptr nonnull %5) #25
  br label %74

74:                                               ; preds = %._crit_edge, %4
  ret void

75:                                               ; preds = %_ZNK6open3d4core7Indexer12GetOutputPtrIlEEPT_l.exit.i
  %76 = landingpad { ptr, i32 }
          catch ptr null
  %77 = extractvalue { ptr, i32 } %76, 0
  call void @__clang_call_terminate(ptr %77) #38
  unreachable
}